target datalayout = "e-m:e-p270:32:32-p271:32:32-p272:64:64-i64:64-i128:128-f80:128-n8:16:32:64-S128"
target triple = "x86_64-pc-linux-gnu"

%struct._zend_libxml_globals = type { %struct._zval_struct, %struct.smart_str, ptr, %struct._zend_fcall_info_cache, i8 }
%struct._zval_struct = type { %union._zend_value, %union.anon, %union.anon.2 }
%union._zend_value = type { i64 }
%union.anon = type { i32 }
%union.anon.2 = type { i32 }
%struct.smart_str = type { ptr, i64 }
%struct._zend_fcall_info_cache = type { ptr, ptr, ptr, ptr, ptr }
%struct._zend_refcounted_h = type { i32, %union.anon.3 }
%union.anon.3 = type { i32 }

@libxml_globals = internal global %struct._zend_libxml_globals zeroinitializer, align 8
@_php_libxml_per_request_initialization = internal global i32 1, align 4

; Function Attrs: nounwind uwtable
define internal i32 @php_libxml_post_deactivate() #0 {
  %1 = alloca ptr, align 8
  %2 = alloca i32, align 4
  %3 = alloca ptr, align 8
  %4 = alloca i8, align 1
  %5 = alloca ptr, align 8
  %6 = alloca i8, align 1
  %7 = alloca ptr, align 8
  %8 = load i32, ptr @_php_libxml_per_request_initialization, align 4
  %9 = icmp ne i32 %8, 0
  br i1 %9, label %10, label %13

10:                                               ; preds = %0
  call void @xmlSetGenericErrorFunc(ptr noundef null, ptr noundef null)
  %11 = call ptr @xmlParserInputBufferCreateFilenameDefault(ptr noundef null)
  %12 = call ptr @xmlOutputBufferCreateFilenameDefault(ptr noundef null)
  br label %13

13:                                               ; preds = %10, %0
  call void @xmlSetStructuredErrorFunc(ptr noundef null, ptr noundef null)
  br label %14

14:                                               ; preds = %13
  store i32 0, ptr getelementptr inbounds (%struct._zval_struct, ptr @libxml_globals, i32 0, i32 1), align 8
  br label %15

15:                                               ; preds = %14
  store ptr getelementptr inbounds (%struct._zend_libxml_globals, ptr @libxml_globals, i32 0, i32 1), ptr %7, align 8
  %16 = load ptr, ptr %7, align 8
  store ptr %16, ptr %5, align 8
  store i8 0, ptr %6, align 1
  %17 = load ptr, ptr %5, align 8
  %18 = load ptr, ptr %17, align 8
  %19 = icmp ne ptr %18, null
  br i1 %19, label %20, label %53

20:                                               ; preds = %15
  %21 = load ptr, ptr %5, align 8
  %22 = load ptr, ptr %21, align 8
  %23 = load i8, ptr %6, align 1
  %24 = trunc i8 %23 to i1
  store ptr %22, ptr %3, align 8
  %25 = zext i1 %24 to i8
  store i8 %25, ptr %4, align 1
  %26 = load ptr, ptr %3, align 8
  %27 = getelementptr inbounds %struct._zend_refcounted_h, ptr %26, i32 0, i32 1
  %28 = load i32, ptr %27, align 4
  store i32 %28, ptr %2, align 4
  %29 = load i32, ptr %2, align 4
  %30 = and i32 %29, 1008
  %31 = and i32 %30, 64
  %32 = icmp ne i32 %31, 0
  br i1 %32, label %51, label %33

33:                                               ; preds = %20
  %34 = load ptr, ptr %3, align 8
  store ptr %34, ptr %1, align 8
  %35 = load ptr, ptr %1, align 8
  %36 = load i32, ptr %35, align 4
  %37 = icmp ugt i32 %36, 0
  call void @llvm.assume(i1 %37)
  %38 = load ptr, ptr %1, align 8
  %39 = load i32, ptr %38, align 4
  %40 = add i32 %39, -1
  store i32 %40, ptr %38, align 4
  %41 = icmp eq i32 %40, 0
  br i1 %41, label %42, label %50

42:                                               ; preds = %33
  %43 = load i8, ptr %4, align 1
  %44 = trunc i8 %43 to i1
  br i1 %44, label %45, label %47

45:                                               ; preds = %42
  %46 = load ptr, ptr %3, align 8
  call void @free(ptr noundef %46) #11
  br label %49

47:                                               ; preds = %42
  %48 = load ptr, ptr %3, align 8
  call void @_efree(ptr noundef %48) #11
  br label %49

49:                                               ; preds = %47, %45
  br label %50

50:                                               ; preds = %49, %33
  br label %51

51:                                               ; preds = %50, %20
  %52 = load ptr, ptr %5, align 8
  store ptr null, ptr %52, align 8
  br label %53

53:                                               ; preds = %51, %15
  %54 = load ptr, ptr %5, align 8
  %55 = getelementptr inbounds %struct.smart_str, ptr %54, i32 0, i32 1
  store i64 0, ptr %55, align 8
  %56 = load ptr, ptr getelementptr inbounds (%struct._zend_libxml_globals, ptr @libxml_globals, i32 0, i32 2), align 8
  %57 = icmp ne ptr %56, null
  br i1 %57, label %58, label %61

58:                                               ; preds = %53
  %59 = load ptr, ptr getelementptr inbounds (%struct._zend_libxml_globals, ptr @libxml_globals, i32 0, i32 2), align 8
  call void @zend_llist_destroy(ptr noundef %59)
  %60 = load ptr, ptr getelementptr inbounds (%struct._zend_libxml_globals, ptr @libxml_globals, i32 0, i32 2), align 8
  call void @_efree(ptr noundef %60)
  store ptr null, ptr getelementptr inbounds (%struct._zend_libxml_globals, ptr @libxml_globals, i32 0, i32 2), align 8
  br label %61

61:                                               ; preds = %58, %53
  call void @xmlResetLastError()
  ret i32 0
}