; Function Attrs: nounwind uwtable
define internal noundef i32 @php_libxml_post_deactivate() #0 {
  %.b = load i1, ptr @_php_libxml_per_request_initialization, align 4
  br i1 %.b, label %4, label %1

1:                                                ; preds = %0
  tail call void @xmlSetGenericErrorFunc(ptr noundef null, ptr noundef null) #17
  %2 = tail call ptr @xmlParserInputBufferCreateFilenameDefault(ptr noundef null) #17
  %3 = tail call ptr @xmlOutputBufferCreateFilenameDefault(ptr noundef null) #17
  br label %4

4:                                                ; preds = %1, %0
  tail call void @xmlSetStructuredErrorFunc(ptr noundef null, ptr noundef null) #17
  store i32 0, ptr getelementptr inbounds (%struct._zend_libxml_globals, ptr @libxml_globals, i64 0, i32 0, i32 1), align 8
  %5 = load ptr, ptr getelementptr inbounds (%struct._zend_libxml_globals, ptr @libxml_globals, i64 0, i32 1), align 8
  %.not = icmp eq ptr %5, null
  br i1 %.not, label %17, label %6

6:                                                ; preds = %4
  %7 = getelementptr inbounds i8, ptr %5, i64 4
  %8 = load i32, ptr %7, align 4
  %9 = and i32 %8, 64
  %.not14 = icmp eq i32 %9, 0
  br i1 %.not14, label %10, label %16

10:                                               ; preds = %6
  %11 = load i32, ptr %5, align 4
  %12 = icmp ne i32 %11, 0
  tail call void @llvm.assume(i1 %12)
  %13 = add i32 %11, -1
  store i32 %13, ptr %5, align 4
  %14 = icmp eq i32 %13, 0
  br i1 %14, label %15, label %16

15:                                               ; preds = %10
  tail call void @_efree(ptr noundef nonnull %5) #17
  br label %16

16:                                               ; preds = %10, %15, %6
  store ptr null, ptr getelementptr inbounds (%struct._zend_libxml_globals, ptr @libxml_globals, i64 0, i32 1), align 8
  br label %17

17:                                               ; preds = %16, %4
  store i64 0, ptr getelementptr inbounds (%struct._zend_libxml_globals, ptr @libxml_globals, i64 0, i32 1, i32 1), align 8
  %18 = load ptr, ptr getelementptr inbounds (%struct._zend_libxml_globals, ptr @libxml_globals, i64 0, i32 2), align 8
  %.not15 = icmp eq ptr %18, null
  br i1 %.not15, label %21, label %19

19:                                               ; preds = %17
  tail call void @zend_llist_destroy(ptr noundef nonnull %18) #17
  %20 = load ptr, ptr getelementptr inbounds (%struct._zend_libxml_globals, ptr @libxml_globals, i64 0, i32 2), align 8
  tail call void @_efree(ptr noundef %20) #17
  store ptr null, ptr getelementptr inbounds (%struct._zend_libxml_globals, ptr @libxml_globals, i64 0, i32 2), align 8
  br label %21

21:                                               ; preds = %19, %17
  tail call void @xmlResetLastError() #17
  ret i32 0
}